target datalayout = "e-m:e-p270:32:32-p271:32:32-p272:64:64-i64:64-i128:128-f80:128-n8:16:32:64-S128"
target triple = "x86_64-pc-linux-gnu"

%struct.register_srt = type { i32, ptr, i32, ptr, ptr, ptr, ptr }

@.str = private unnamed_addr constant [5 x i8] c",srt\00", align 1

; Function Attrs: null_pointer_is_valid sspstrong uwtable
define ptr @srt_table_get_tap_string(ptr noundef %0) #1 {
  %2 = alloca ptr, align 8
  %3 = alloca ptr, align 8
  store ptr %0, ptr %2, align 8
  call void @llvm.lifetime.start.p0(i64 8, ptr %3) #11
  %4 = load ptr, ptr %2, align 8
  %5 = getelementptr inbounds nuw %struct.register_srt, ptr %4, i32 0, i32 0
  %6 = load i32, ptr %5, align 8
  %7 = call ptr @proto_get_protocol_filter_name(i32 noundef %6)
  %8 = call ptr @g_string_new(ptr noundef %7)
  store ptr %8, ptr %3, align 8
  %9 = load ptr, ptr %3, align 8
  %10 = call ptr @g_string_append(ptr noundef %9, ptr noundef @.str)
  %11 = load ptr, ptr %3, align 8
  %12 = call ptr @g_string_free(ptr noundef %11, i32 noundef 0)
  call void @llvm.lifetime.end.p0(i64 8, ptr %3) #11
  ret ptr %12
}

; Function Attrs: null_pointer_is_valid sspstrong uwtable
define void @srt_table_get_filter(ptr noundef %0, ptr noundef %1, ptr noundef %2, ptr noundef %3) #1 {
  %5 = alloca ptr, align 8
  %6 = alloca ptr, align 8
  %7 = alloca ptr, align 8
  %8 = alloca ptr, align 8
  %9 = alloca ptr, align 8
  %10 = alloca i32, align 4
  %11 = alloca i32, align 4
  %12 = alloca i32, align 4
  store ptr %0, ptr %5, align 8
  store ptr %1, ptr %6, align 8
  store ptr %2, ptr %7, align 8
  store ptr %3, ptr %8, align 8
  call void @llvm.lifetime.start.p0(i64 8, ptr %9) #11
  %13 = load ptr, ptr %5, align 8
  %14 = call ptr @srt_table_get_tap_string(ptr noundef %13)
  store ptr %14, ptr %9, align 8
  call void @llvm.lifetime.start.p0(i64 4, ptr %10) #11
  %15 = load ptr, ptr %9, align 8
  %16 = call i64 @strlen(ptr noundef %15) #12
  %17 = trunc i64 %16 to i32
  store i32 %17, ptr %10, align 4
  call void @llvm.lifetime.start.p0(i64 4, ptr %11) #11
  %18 = load i32, ptr %10, align 4
  store i32 %18, ptr %11, align 4
  %19 = load ptr, ptr %7, align 8
  store ptr null, ptr %19, align 8
  %20 = load ptr, ptr %8, align 8
  store ptr null, ptr %20, align 8
  %21 = load ptr, ptr %6, align 8
  %22 = load ptr, ptr %9, align 8
  %23 = load i32, ptr %10, align 4
  %24 = zext i32 %23 to i64
  %25 = call i32 @strncmp(ptr noundef %21, ptr noundef %22, i64 noundef %24) #12
  %26 = icmp ne i32 %25, 0
  br i1 %26, label %71, label %27

27:                                               ; preds = %4
  %28 = load ptr, ptr %5, align 8
  %29 = getelementptr inbounds nuw %struct.register_srt, ptr %28, i32 0, i32 5
  %30 = load ptr, ptr %29, align 8
  %31 = icmp ne ptr %30, null
  br i1 %31, label %32, label %55

32:                                               ; preds = %27
  %33 = load ptr, ptr %5, align 8
  %34 = getelementptr inbounds nuw %struct.register_srt, ptr %33, i32 0, i32 5
  %35 = load ptr, ptr %34, align 8
  %36 = load ptr, ptr %5, align 8
  %37 = load ptr, ptr %6, align 8
  %38 = load i32, ptr %10, align 4
  %39 = zext i32 %38 to i64
  %40 = getelementptr i8, ptr %37, i64 %39
  %41 = load ptr, ptr %8, align 8
  %42 = call i32 %35(ptr noundef %36, ptr noundef %40, ptr noundef %41)
  store i32 %42, ptr %11, align 4
  %43 = load ptr, ptr %8, align 8
  %44 = load ptr, ptr %43, align 8
  %45 = icmp ne ptr %44, null
  br i1 %45, label %46, label %47

46:                                               ; preds = %32
  store i32 1, ptr %12, align 4
  br label %73

47:                                               ; preds = %32
  %48 = load i32, ptr %11, align 4
  %49 = icmp ugt i32 %48, 0
  br i1 %49, label %50, label %54

50:                                               ; preds = %47
  %51 = load i32, ptr %10, align 4
  %52 = load i32, ptr %11, align 4
  %53 = add i32 %52, %51
  store i32 %53, ptr %11, align 4
  br label %54

54:                                               ; preds = %50, %47
  br label %55

55:                                               ; preds = %54, %27
  %56 = load ptr, ptr %6, align 8
  %57 = load i32, ptr %11, align 4
  %58 = zext i32 %57 to i64
  %59 = getelementptr i8, ptr %56, i64 %58
  %60 = load i8, ptr %59, align 1
  %61 = sext i8 %60 to i32
  %62 = icmp eq i32 %61, 44
  br i1 %62, label %63, label %70

63:                                               ; preds = %55
  %64 = load ptr, ptr %6, align 8
  %65 = load i32, ptr %11, align 4
  %66 = zext i32 %65 to i64
  %67 = getelementptr i8, ptr %64, i64 %66
  %68 = getelementptr i8, ptr %67, i64 1
  %69 = load ptr, ptr %7, align 8
  store ptr %68, ptr %69, align 8
  br label %70

70:                                               ; preds = %63, %55
  br label %71

71:                                               ; preds = %70, %4
  %72 = load ptr, ptr %9, align 8
  call void @g_free(ptr noundef %72)
  store i32 0, ptr %12, align 4
  br label %73

73:                                               ; preds = %71, %46
  call void @llvm.lifetime.end.p0(i64 4, ptr %11) #11
  call void @llvm.lifetime.end.p0(i64 4, ptr %10) #11
  call void @llvm.lifetime.end.p0(i64 8, ptr %9) #11
  %74 = load i32, ptr %12, align 4
  switch i32 %74, label %76 [
    i32 0, label %75
    i32 1, label %75
  ]

75:                                               ; preds = %73, %73
  ret void

76:                                               ; preds = %73
  unreachable
}