; Function Attrs: null_pointer_is_valid sspstrong uwtable
define void @srt_table_get_filter(ptr noundef %0, ptr noundef %1, ptr noundef writeonly captures(none) initializes((0, 8)) %2, ptr noundef initializes((0, 8)) %3) local_unnamed_addr #2 {
  %5 = load i32, ptr %0, align 8
  %6 = tail call ptr @proto_get_protocol_filter_name(i32 noundef %5)
  %7 = tail call ptr @g_string_new(ptr noundef %6)
  %8 = tail call ptr @g_string_append(ptr noundef %7, ptr noundef nonnull @.str)
  %9 = tail call ptr @g_string_free(ptr noundef %7, i32 noundef 0)
  %10 = tail call i64 @strlen(ptr noundef %9) #11
  %11 = trunc i64 %10 to i32
  store ptr null, ptr %2, align 8
  store ptr null, ptr %3, align 8
  %12 = and i64 %10, 4294967295
  %13 = tail call i32 @strncmp(ptr noundef %1, ptr noundef %9, i64 noundef %12) #11
  %.not = icmp eq i32 %13, 0
  br i1 %.not, label %14, label %30

14:                                               ; preds = %4
  %15 = getelementptr inbounds nuw i8, ptr %0, i64 40
  %16 = load ptr, ptr %15, align 8
  %.not25 = icmp eq ptr %16, null
  br i1 %.not25, label %23, label %17

17:                                               ; preds = %14
  %18 = getelementptr i8, ptr %1, i64 %12
  %19 = tail call i32 %16(ptr noundef %0, ptr noundef %18, ptr noundef %3)
  %20 = load ptr, ptr %3, align 8
  %.not26 = icmp eq ptr %20, null
  br i1 %.not26, label %21, label %31

21:                                               ; preds = %17
  %.not27 = icmp eq i32 %19, 0
  %22 = add i32 %19, %11
  %spec.select = select i1 %.not27, i32 0, i32 %22
  br label %23

23:                                               ; preds = %21, %14
  %.0 = phi i32 [ %11, %14 ], [ %spec.select, %21 ]
  %24 = zext i32 %.0 to i64
  %25 = getelementptr i8, ptr %1, i64 %24
  %26 = load i8, ptr %25, align 1
  %27 = icmp eq i8 %26, 44
  br i1 %27, label %28, label %30

28:                                               ; preds = %23
  %29 = getelementptr i8, ptr %25, i64 1
  store ptr %29, ptr %2, align 8
  br label %30

30:                                               ; preds = %23, %28, %4
  tail call void @g_free(ptr noundef %9)
  br label %31

31:                                               ; preds = %17, %30
  ret void
}